; ModuleID = '22/598.c'
source_filename = "22/598.c"
target datalayout = "e-m:e-p270:32:32-p271:32:32-p272:64:64-i64:64-f80:128-n8:16:32:64-S128"
target triple = "x86_64-pc-linux-gnu"

@.str = private unnamed_addr constant [3 x i8] c"%d\00", align 1
@.str.1 = private unnamed_addr constant [3 x i8] c"%c\00", align 1
@.str.2 = private unnamed_addr constant [3 x i8] c"No\00", align 1

; Function Attrs: noinline nounwind uwtable
define dso_local void @main() #0 {
  %1 = alloca [300 x i32], align 16
  %2 = alloca i32, align 4
  %3 = alloca i32, align 4
  %4 = alloca i32, align 4
  %5 = alloca i32, align 4
  %6 = alloca i8, align 1
  store i32 0, i32* %2, align 4
  br label %7

7:                                                ; preds = %15, %0
  %8 = load i32, i32* %2, align 4
  %9 = sext i32 %8 to i64
  %10 = getelementptr inbounds [300 x i32], [300 x i32]* %1, i64 0, i64 %9
  %11 = call i32 (i8*, ...) @__isoc99_scanf(i8* getelementptr inbounds ([3 x i8], [3 x i8]* @.str, i64 0, i64 0), i32* %10)
  %12 = call i32 (i8*, ...) @__isoc99_scanf(i8* getelementptr inbounds ([3 x i8], [3 x i8]* @.str.1, i64 0, i64 0), i8* %6)
  %13 = load i32, i32* %2, align 4
  %14 = add nsw i32 %13, 1
  store i32 %14, i32* %2, align 4
  br label %15

15:                                               ; preds = %7
  %16 = load i8, i8* %6, align 1
  %17 = sext i8 %16 to i32
  %18 = icmp eq i32 %17, 44
  br i1 %18, label %7, label %19

19:                                               ; preds = %15
  %20 = getelementptr inbounds [300 x i32], [300 x i32]* %1, i64 0, i64 0
  %21 = load i32, i32* %20, align 16
  store i32 %21, i32* %4, align 4
  store i32 0, i32* %5, align 4
  store i32 0, i32* %3, align 4
  br label %22

22:                                               ; preds = %60, %19
  %23 = load i32, i32* %3, align 4
  %24 = load i32, i32* %2, align 4
  %25 = icmp slt i32 %23, %24
  br i1 %25, label %26, label %63

26:                                               ; preds = %22
  %27 = load i32, i32* %3, align 4
  %28 = sext i32 %27 to i64
  %29 = getelementptr inbounds [300 x i32], [300 x i32]* %1, i64 0, i64 %28
  %30 = load i32, i32* %29, align 4
  %31 = load i32, i32* %4, align 4
  %32 = icmp sgt i32 %30, %31
  br i1 %32, label %33, label %39

33:                                               ; preds = %26
  %34 = load i32, i32* %4, align 4
  store i32 %34, i32* %5, align 4
  %35 = load i32, i32* %3, align 4
  %36 = sext i32 %35 to i64
  %37 = getelementptr inbounds [300 x i32], [300 x i32]* %1, i64 0, i64 %36
  %38 = load i32, i32* %37, align 4
  store i32 %38, i32* %4, align 4
  br label %60

39:                                               ; preds = %26
  %40 = load i32, i32* %3, align 4
  %41 = sext i32 %40 to i64
  %42 = getelementptr inbounds [300 x i32], [300 x i32]* %1, i64 0, i64 %41
  %43 = load i32, i32* %42, align 4
  %44 = load i32, i32* %4, align 4
  %45 = icmp eq i32 %43, %44
  br i1 %45, label %46, label %47

46:                                               ; preds = %39
  br label %60

47:                                               ; preds = %39
  %48 = load i32, i32* %3, align 4
  %49 = sext i32 %48 to i64
  %50 = getelementptr inbounds [300 x i32], [300 x i32]* %1, i64 0, i64 %49
  %51 = load i32, i32* %50, align 4
  %52 = load i32, i32* %5, align 4
  %53 = icmp sgt i32 %51, %52
  br i1 %53, label %54, label %59

54:                                               ; preds = %47
  %55 = load i32, i32* %3, align 4
  %56 = sext i32 %55 to i64
  %57 = getelementptr inbounds [300 x i32], [300 x i32]* %1, i64 0, i64 %56
  %58 = load i32, i32* %57, align 4
  store i32 %58, i32* %5, align 4
  br label %59

59:                                               ; preds = %54, %47
  br label %60

60:                                               ; preds = %59, %46, %33
  %61 = load i32, i32* %3, align 4
  %62 = add nsw i32 %61, 1
  store i32 %62, i32* %3, align 4
  br label %22

63:                                               ; preds = %22
  %64 = load i32, i32* %5, align 4
  %65 = icmp eq i32 %64, 0
  br i1 %65, label %66, label %68

66:                                               ; preds = %63
  %67 = call i32 (i8*, ...) @printf(i8* getelementptr inbounds ([3 x i8], [3 x i8]* @.str.2, i64 0, i64 0))
  br label %71

68:                                               ; preds = %63
  %69 = load i32, i32* %5, align 4
  %70 = call i32 (i8*, ...) @printf(i8* getelementptr inbounds ([3 x i8], [3 x i8]* @.str, i64 0, i64 0), i32 %69)
  br label %71

71:                                               ; preds = %68, %66
  ret void
}

declare dso_local i32 @__isoc99_scanf(i8*, ...) #1

declare dso_local i32 @printf(i8*, ...) #1


!llvm.module.flags = !{!0}
!llvm.ident = !{!1}

!0 = !{i32 1, !"wchar_size", i32 4}
!1 = !{!"clang version 10.0.0-4ubuntu1 "}
